target datalayout = "e-m:e-p270:32:32-p271:32:32-p272:64:64-i64:64-i128:128-f80:128-n8:16:32:64-S128"
target triple = "x86_64-pc-linux-gnu"

%struct.ident_t = type { i32, i32, i32, i32, ptr }
%"struct.std::_Vector_base.4" = type { %"struct.std::_Vector_base<ncnn::Mat, std::allocator<ncnn::Mat>>::_Vector_impl" }
%"struct.std::_Vector_base<ncnn::Mat, std::allocator<ncnn::Mat>>::_Vector_impl" = type { %"struct.std::_Vector_base<ncnn::Mat, std::allocator<ncnn::Mat>>::_Vector_impl_data" }
%"struct.std::_Vector_base<ncnn::Mat, std::allocator<ncnn::Mat>>::_Vector_impl_data" = type { ptr, ptr, ptr }
%"class.ncnn::Mat" = type { ptr, ptr, i64, i32, ptr, i32, i32, i32, i32, i32, i64 }

@1 = private unnamed_addr constant %struct.ident_t { i32 0, i32 514, i32 0, i32 22, ptr @0 }, align 8

; Function Attrs: noinline noreturn nounwind uwtable
define linkonce_odr hidden void @__clang_call_terminate(ptr noundef %0) #10 comdat {
  %2 = call ptr @__cxa_begin_catch(ptr %0) #9
  call void @_ZSt9terminatev() #14
  unreachable
}

; Function Attrs: alwaysinline mustprogress nounwind uwtable
define linkonce_odr hidden noundef ptr @_ZN4ncnn3Mat3rowEi(ptr noundef nonnull align 8 dereferenceable(72) %0, i32 noundef %1) #5 comdat align 2 {
  %3 = alloca ptr, align 8
  %4 = alloca i32, align 4
  store ptr %0, ptr %3, align 8, !tbaa !17
  store i32 %1, ptr %4, align 4, !tbaa !25
  %5 = load ptr, ptr %3, align 8
  %6 = getelementptr inbounds nuw %"class.ncnn::Mat", ptr %5, i32 0, i32 0
  %7 = load ptr, ptr %6, align 8, !tbaa !85
  %8 = getelementptr inbounds nuw %"class.ncnn::Mat", ptr %5, i32 0, i32 6
  %9 = load i32, ptr %8, align 4, !tbaa !45
  %10 = sext i32 %9 to i64
  %11 = load i32, ptr %4, align 4, !tbaa !25
  %12 = sext i32 %11 to i64
  %13 = mul i64 %10, %12
  %14 = getelementptr inbounds nuw %"class.ncnn::Mat", ptr %5, i32 0, i32 2
  %15 = load i64, ptr %14, align 8, !tbaa !26
  %16 = mul i64 %13, %15
  %17 = getelementptr inbounds nuw i8, ptr %7, i64 %16
  ret ptr %17
}

; Function Attrs: mustprogress nounwind uwtable
define linkonce_odr hidden noundef nonnull align 8 dereferenceable(72) ptr @_ZNSt6vectorIN4ncnn3MatESaIS1_EEixEm(ptr noundef nonnull align 8 dereferenceable(24) %0, i64 noundef %1) #4 comdat align 2 {
  %3 = alloca ptr, align 8
  %4 = alloca i64, align 8
  store ptr %0, ptr %3, align 8, !tbaa !13
  store i64 %1, ptr %4, align 8, !tbaa !27
  %5 = load ptr, ptr %3, align 8
  %6 = getelementptr inbounds nuw %"struct.std::_Vector_base.4", ptr %5, i32 0, i32 0
  %7 = getelementptr inbounds nuw %"struct.std::_Vector_base<ncnn::Mat, std::allocator<ncnn::Mat>>::_Vector_impl_data", ptr %6, i32 0, i32 0
  %8 = load ptr, ptr %7, align 8, !tbaa !84
  %9 = load i64, ptr %4, align 8, !tbaa !27
  %10 = getelementptr inbounds nuw %"class.ncnn::Mat", ptr %8, i64 %9
  ret ptr %10
}

; Function Attrs: mustprogress nounwind uwtable
define linkonce_odr hidden noundef i64 @_ZNKSt6vectorIN4ncnn3MatESaIS1_EE4sizeEv(ptr noundef nonnull align 8 dereferenceable(24) %0) #4 comdat align 2 {
  %2 = alloca ptr, align 8
  store ptr %0, ptr %2, align 8, !tbaa !13
  %3 = load ptr, ptr %2, align 8
  %4 = getelementptr inbounds nuw %"struct.std::_Vector_base.4", ptr %3, i32 0, i32 0
  %5 = getelementptr inbounds nuw %"struct.std::_Vector_base<ncnn::Mat, std::allocator<ncnn::Mat>>::_Vector_impl_data", ptr %4, i32 0, i32 1
  %6 = load ptr, ptr %5, align 8, !tbaa !86
  %7 = getelementptr inbounds nuw %"struct.std::_Vector_base.4", ptr %3, i32 0, i32 0
  %8 = getelementptr inbounds nuw %"struct.std::_Vector_base<ncnn::Mat, std::allocator<ncnn::Mat>>::_Vector_impl_data", ptr %7, i32 0, i32 0
  %9 = load ptr, ptr %8, align 8, !tbaa !84
  %10 = ptrtoint ptr %6 to i64
  %11 = ptrtoint ptr %9 to i64
  %12 = sub i64 %10, %11
  %13 = sdiv exact i64 %12, 72
  ret i64 %13
}

; Function Attrs: alwaysinline mustprogress nounwind uwtable
define linkonce_odr hidden noundef ptr @_ZNK4ncnn3Mat3rowIKfEEPKT_i(ptr noundef nonnull align 8 dereferenceable(72) %0, i32 noundef %1) #5 comdat align 2 {
  %3 = alloca ptr, align 8
  %4 = alloca i32, align 4
  store ptr %0, ptr %3, align 8, !tbaa !17
  store i32 %1, ptr %4, align 4, !tbaa !25
  %5 = load ptr, ptr %3, align 8
  %6 = getelementptr inbounds nuw %"class.ncnn::Mat", ptr %5, i32 0, i32 0
  %7 = load ptr, ptr %6, align 8, !tbaa !85
  %8 = getelementptr inbounds nuw %"class.ncnn::Mat", ptr %5, i32 0, i32 6
  %9 = load i32, ptr %8, align 4, !tbaa !45
  %10 = sext i32 %9 to i64
  %11 = load i32, ptr %4, align 4, !tbaa !25
  %12 = sext i32 %11 to i64
  %13 = mul i64 %10, %12
  %14 = getelementptr inbounds nuw %"class.ncnn::Mat", ptr %5, i32 0, i32 2
  %15 = load i64, ptr %14, align 8, !tbaa !26
  %16 = mul i64 %13, %15
  %17 = getelementptr inbounds nuw i8, ptr %7, i64 %16
  ret ptr %17
}

; Function Attrs: alwaysinline norecurse nounwind uwtable
define internal void @_ZNK4ncnn13Slice_x86_avx7forwardERKSt6vectorINS_3MatESaIS2_EERS4_RKNS_6OptionE.omp_outlined(ptr noalias noundef %0, ptr noalias noundef %1, ptr noundef nonnull align 4 dereferenceable(4) %2, ptr noundef nonnull align 8 dereferenceable(72) %3, ptr noundef nonnull align 8 dereferenceable(24) %4, ptr noundef nonnull align 8 dereferenceable(8) %5, ptr noundef nonnull align 4 dereferenceable(4) %6) #8 personality ptr @__gxx_personality_v0 {
  %8 = alloca ptr, align 8
  %9 = alloca ptr, align 8
  %10 = alloca ptr, align 8
  %11 = alloca ptr, align 8
  %12 = alloca ptr, align 8
  %13 = alloca ptr, align 8
  %14 = alloca ptr, align 8
  %15 = alloca ptr, align 8
  %16 = alloca ptr, align 8
  %17 = alloca i32, align 4
  %18 = alloca i32, align 4
  %19 = alloca i32, align 4
  %20 = alloca i32, align 4
  %21 = alloca i32, align 4
  %22 = alloca i32, align 4
  %23 = alloca i32, align 4
  %24 = alloca i32, align 4
  %25 = alloca i32, align 4
  %26 = alloca ptr, align 8
  %27 = alloca i64, align 8
  %28 = alloca ptr, align 8
  %29 = alloca ptr, align 8
  store ptr %0, ptr %8, align 8, !tbaa !29
  store ptr %1, ptr %9, align 8, !tbaa !29
  store ptr %2, ptr %10, align 8, !tbaa !29
  store ptr %3, ptr %11, align 8, !tbaa !17
  store ptr %4, ptr %12, align 8, !tbaa !13
  store ptr %5, ptr %13, align 8, !tbaa !87
  store ptr %6, ptr %14, align 8, !tbaa !29
  %30 = load ptr, ptr %10, align 8, !tbaa !29
  %31 = load ptr, ptr %11, align 8, !tbaa !17
  %32 = load ptr, ptr %12, align 8, !tbaa !13
  %33 = load ptr, ptr %13, align 8, !tbaa !87
  %34 = load ptr, ptr %14, align 8, !tbaa !29
  store ptr %31, ptr %15, align 8
  store ptr %32, ptr %16, align 8
  call void @llvm.lifetime.start.p0(i64 4, ptr %17) #9
  call void @llvm.lifetime.start.p0(i64 4, ptr %18) #9
  %35 = load i32, ptr %30, align 4, !tbaa !25
  store i32 %35, ptr %18, align 4, !tbaa !25
  call void @llvm.lifetime.start.p0(i64 4, ptr %19) #9
  %36 = load i32, ptr %18, align 4, !tbaa !25
  %37 = sub nsw i32 %36, 0
  %38 = sdiv i32 %37, 1
  %39 = sub nsw i32 %38, 1
  store i32 %39, ptr %19, align 4, !tbaa !25
  call void @llvm.lifetime.start.p0(i64 4, ptr %20) #9
  store i32 0, ptr %20, align 4, !tbaa !25
  call void @llvm.lifetime.end.p0(i64 4, ptr %20) #9
  %40 = load i32, ptr %18, align 4, !tbaa !25
  %41 = icmp slt i32 0, %40
  br i1 %41, label %42, label %111

42:                                               ; preds = %7
  call void @llvm.lifetime.start.p0(i64 4, ptr %21) #9
  store i32 0, ptr %21, align 4, !tbaa !25
  call void @llvm.lifetime.start.p0(i64 4, ptr %22) #9
  %43 = load i32, ptr %19, align 4, !tbaa !25
  store i32 %43, ptr %22, align 4, !tbaa !25
  call void @llvm.lifetime.start.p0(i64 4, ptr %23) #9
  store i32 1, ptr %23, align 4, !tbaa !25
  call void @llvm.lifetime.start.p0(i64 4, ptr %24) #9
  store i32 0, ptr %24, align 4, !tbaa !25
  call void @llvm.lifetime.start.p0(i64 4, ptr %25) #9
  %44 = load ptr, ptr %8, align 8
  %45 = load i32, ptr %44, align 4, !tbaa !25
  call void @__kmpc_for_static_init_4(ptr @1, i32 %45, i32 34, ptr %24, ptr %21, ptr %22, ptr %23, i32 1, i32 1)
  %46 = load i32, ptr %22, align 4, !tbaa !25
  %47 = load i32, ptr %19, align 4, !tbaa !25
  %48 = icmp sgt i32 %46, %47
  br i1 %48, label %49, label %51

49:                                               ; preds = %42
  %50 = load i32, ptr %19, align 4, !tbaa !25
  br label %53

51:                                               ; preds = %42
  %52 = load i32, ptr %22, align 4, !tbaa !25
  br label %53

53:                                               ; preds = %51, %49
  %54 = phi i32 [ %50, %49 ], [ %52, %51 ]
  store i32 %54, ptr %22, align 4, !tbaa !25
  %55 = load i32, ptr %21, align 4, !tbaa !25
  store i32 %55, ptr %17, align 4, !tbaa !25
  br label %56

56:                                               ; preds = %104, %53
  %57 = load i32, ptr %17, align 4, !tbaa !25
  %58 = load i32, ptr %22, align 4, !tbaa !25
  %59 = icmp sle i32 %57, %58
  br i1 %59, label %61, label %60

60:                                               ; preds = %56
  br label %107

61:                                               ; preds = %56
  %62 = load i32, ptr %17, align 4, !tbaa !25
  %63 = mul nsw i32 %62, 1
  %64 = add nsw i32 0, %63
  store i32 %64, ptr %25, align 4, !tbaa !25
  call void @llvm.lifetime.start.p0(i64 8, ptr %26) #9
  %65 = load ptr, ptr %15, align 8, !tbaa !17
  %66 = load i32, ptr %25, align 4, !tbaa !25
  %67 = invoke noundef ptr @_ZNK4ncnn3Mat3rowIKfEEPKT_i(ptr noundef nonnull align 8 dereferenceable(72) %65, i32 noundef %66)
          to label %68 unwind label %112

68:                                               ; preds = %61
  store ptr %67, ptr %26, align 8, !tbaa !51
  call void @llvm.lifetime.start.p0(i64 8, ptr %27) #9
  store i64 0, ptr %27, align 8, !tbaa !27
  br label %69

69:                                               ; preds = %99, %68
  %70 = load i64, ptr %27, align 8, !tbaa !27
  %71 = load ptr, ptr %16, align 8, !tbaa !13
  %72 = call noundef i64 @_ZNKSt6vectorIN4ncnn3MatESaIS1_EE4sizeEv(ptr noundef nonnull align 8 dereferenceable(24) %71) #9
  %73 = icmp ult i64 %70, %72
  br i1 %73, label %75, label %74

74:                                               ; preds = %69
  call void @llvm.lifetime.end.p0(i64 8, ptr %27) #9
  br label %102

75:                                               ; preds = %69
  call void @llvm.lifetime.start.p0(i64 8, ptr %28) #9
  %76 = load ptr, ptr %16, align 8, !tbaa !13
  %77 = load i64, ptr %27, align 8, !tbaa !27
  %78 = call noundef nonnull align 8 dereferenceable(72) ptr @_ZNSt6vectorIN4ncnn3MatESaIS1_EEixEm(ptr noundef nonnull align 8 dereferenceable(24) %76, i64 noundef %77) #9
  store ptr %78, ptr %28, align 8, !tbaa !17
  call void @llvm.lifetime.start.p0(i64 8, ptr %29) #9
  %79 = load ptr, ptr %28, align 8, !tbaa !17
  %80 = load i32, ptr %25, align 4, !tbaa !25
  %81 = invoke noundef ptr @_ZN4ncnn3Mat3rowEi(ptr noundef nonnull align 8 dereferenceable(72) %79, i32 noundef %80)
          to label %82 unwind label %112

82:                                               ; preds = %75
  store ptr %81, ptr %29, align 8, !tbaa !51
  %83 = load ptr, ptr %29, align 8, !tbaa !51
  %84 = load ptr, ptr %26, align 8, !tbaa !51
  %85 = load ptr, ptr %28, align 8, !tbaa !17
  %86 = getelementptr inbounds nuw %"class.ncnn::Mat", ptr %85, i32 0, i32 6
  %87 = load i32, ptr %86, align 4, !tbaa !45
  %88 = sext i32 %87 to i64
  %89 = load i64, ptr %33, align 8, !tbaa !27
  %90 = mul i64 %88, %89
  call void @llvm.memcpy.p0.p0.i64(ptr align 4 %83, ptr align 4 %84, i64 %90, i1 false)
  %91 = load ptr, ptr %28, align 8, !tbaa !17
  %92 = getelementptr inbounds nuw %"class.ncnn::Mat", ptr %91, i32 0, i32 6
  %93 = load i32, ptr %92, align 4, !tbaa !45
  %94 = load i32, ptr %34, align 4, !tbaa !25
  %95 = mul nsw i32 %93, %94
  %96 = load ptr, ptr %26, align 8, !tbaa !51
  %97 = sext i32 %95 to i64
  %98 = getelementptr inbounds float, ptr %96, i64 %97
  store ptr %98, ptr %26, align 8, !tbaa !51
  call void @llvm.lifetime.end.p0(i64 8, ptr %29) #9
  call void @llvm.lifetime.end.p0(i64 8, ptr %28) #9
  br label %99

99:                                               ; preds = %82
  %100 = load i64, ptr %27, align 8, !tbaa !27
  %101 = add i64 %100, 1
  store i64 %101, ptr %27, align 8, !tbaa !27
  br label %69, !llvm.loop !92

102:                                              ; preds = %74
  call void @llvm.lifetime.end.p0(i64 8, ptr %26) #9
  br label %103

103:                                              ; preds = %102
  br label %104

104:                                              ; preds = %103
  %105 = load i32, ptr %17, align 4, !tbaa !25
  %106 = add nsw i32 %105, 1
  store i32 %106, ptr %17, align 4, !tbaa !25
  br label %56

107:                                              ; preds = %60
  br label %108

108:                                              ; preds = %107
  %109 = load ptr, ptr %8, align 8
  %110 = load i32, ptr %109, align 4, !tbaa !25
  call void @__kmpc_for_static_fini(ptr @1, i32 %110)
  call void @llvm.lifetime.end.p0(i64 4, ptr %25) #9
  call void @llvm.lifetime.end.p0(i64 4, ptr %24) #9
  call void @llvm.lifetime.end.p0(i64 4, ptr %23) #9
  call void @llvm.lifetime.end.p0(i64 4, ptr %22) #9
  call void @llvm.lifetime.end.p0(i64 4, ptr %21) #9
  br label %111

111:                                              ; preds = %108, %7
  call void @llvm.lifetime.end.p0(i64 4, ptr %19) #9
  call void @llvm.lifetime.end.p0(i64 4, ptr %18) #9
  call void @llvm.lifetime.end.p0(i64 4, ptr %17) #9
  ret void

112:                                              ; preds = %75, %61
  %113 = landingpad { ptr, i32 }
          catch ptr null
  %114 = extractvalue { ptr, i32 } %113, 0
  call void @__clang_call_terminate(ptr %114) #14
  unreachable
}